; Function Attrs: nounwind uwtable
define void @Mfs_ManClean(ptr noundef captures(none) %0) local_unnamed_addr #0 {
  %2 = getelementptr inbounds nuw i8, ptr %0, i64 152
  %3 = load ptr, ptr %2, align 8
  %.not = icmp eq ptr %3, null
  br i1 %.not, label %5, label %4

4:                                                ; preds = %1
  tail call void @Aig_ManStop(ptr noundef nonnull %3) #12
  br label %5

5:                                                ; preds = %4, %1
  %6 = getelementptr inbounds nuw i8, ptr %0, i64 160
  %7 = load ptr, ptr %6, align 8
  %.not27 = icmp eq ptr %7, null
  br i1 %.not27, label %9, label %8

8:                                                ; preds = %5
  tail call void @Cnf_DataFree(ptr noundef nonnull %7) #12
  br label %9

9:                                                ; preds = %8, %5
  %10 = getelementptr inbounds nuw i8, ptr %0, i64 168
  %11 = load ptr, ptr %10, align 8
  %.not28 = icmp eq ptr %11, null
  br i1 %.not28, label %13, label %12

12:                                               ; preds = %9
  tail call void @sat_solver_delete(ptr noundef nonnull %11) #12
  br label %13

13:                                               ; preds = %12, %9
  %14 = getelementptr inbounds nuw i8, ptr %0, i64 40
  %15 = load ptr, ptr %14, align 8
  %.not29 = icmp eq ptr %15, null
  br i1 %.not29, label %20, label %16

16:                                               ; preds = %13
  %17 = getelementptr inbounds nuw i8, ptr %15, i64 8
  %18 = load ptr, ptr %17, align 8
  %.not.i = icmp eq ptr %18, null
  br i1 %.not.i, label %Vec_PtrFree.exit, label %19

19:                                               ; preds = %16
  tail call void @free(ptr noundef nonnull %18) #12
  br label %Vec_PtrFree.exit

Vec_PtrFree.exit:                                 ; preds = %16, %19
  tail call void @free(ptr noundef nonnull %15) #12
  br label %20

20:                                               ; preds = %Vec_PtrFree.exit, %13
  %21 = getelementptr inbounds nuw i8, ptr %0, i64 48
  %22 = load ptr, ptr %21, align 8
  %.not30 = icmp eq ptr %22, null
  br i1 %.not30, label %27, label %23

23:                                               ; preds = %20
  %24 = getelementptr inbounds nuw i8, ptr %22, i64 8
  %25 = load ptr, ptr %24, align 8
  %.not.i33 = icmp eq ptr %25, null
  br i1 %.not.i33, label %Vec_PtrFree.exit34, label %26

26:                                               ; preds = %23
  tail call void @free(ptr noundef nonnull %25) #12
  br label %Vec_PtrFree.exit34

Vec_PtrFree.exit34:                               ; preds = %23, %26
  tail call void @free(ptr noundef nonnull %22) #12
  br label %27

27:                                               ; preds = %Vec_PtrFree.exit34, %20
  %28 = getelementptr inbounds nuw i8, ptr %0, i64 56
  %29 = load ptr, ptr %28, align 8
  %.not31 = icmp eq ptr %29, null
  br i1 %.not31, label %34, label %30

30:                                               ; preds = %27
  %31 = getelementptr inbounds nuw i8, ptr %29, i64 8
  %32 = load ptr, ptr %31, align 8
  %.not.i35 = icmp eq ptr %32, null
  br i1 %.not.i35, label %Vec_PtrFree.exit36, label %33

33:                                               ; preds = %30
  tail call void @free(ptr noundef nonnull %32) #12
  br label %Vec_PtrFree.exit36

Vec_PtrFree.exit36:                               ; preds = %30, %33
  tail call void @free(ptr noundef nonnull %29) #12
  br label %34

34:                                               ; preds = %Vec_PtrFree.exit36, %27
  %35 = getelementptr inbounds nuw i8, ptr %0, i64 64
  %36 = load ptr, ptr %35, align 8
  %.not32 = icmp eq ptr %36, null
  br i1 %.not32, label %41, label %37

37:                                               ; preds = %34
  %38 = getelementptr inbounds nuw i8, ptr %36, i64 8
  %39 = load ptr, ptr %38, align 8
  %.not.i37 = icmp eq ptr %39, null
  br i1 %.not.i37, label %Vec_PtrFree.exit38, label %40

40:                                               ; preds = %37
  tail call void @free(ptr noundef nonnull %39) #12
  br label %Vec_PtrFree.exit38

Vec_PtrFree.exit38:                               ; preds = %37, %40
  tail call void @free(ptr noundef nonnull %36) #12
  br label %41

41:                                               ; preds = %Vec_PtrFree.exit38, %34
  tail call void @llvm.memset.p0.i64(ptr noundef nonnull align 8 dereferenceable(32) %14, i8 0, i64 32, i1 false)
  tail call void @llvm.memset.p0.i64(ptr noundef nonnull align 8 dereferenceable(24) %2, i8 0, i64 24, i1 false)
  ret void
}